target datalayout = "e-m:e-p270:32:32-p271:32:32-p272:64:64-i64:64-i128:128-f80:128-n8:16:32:64-S128"
target triple = "x86_64-pc-linux-gnu"

%"class.pxrInternal_v0_24__pxrReserved__::Vt_ArrayBase" = type { %"struct.pxrInternal_v0_24__pxrReserved__::Vt_ShapeData", ptr }
%"struct.pxrInternal_v0_24__pxrReserved__::Vt_ShapeData" = type { i64, [3 x i32] }
%"class.pxrInternal_v0_24__pxrReserved__::VtArray" = type { %"class.pxrInternal_v0_24__pxrReserved__::Vt_ArrayBase", ptr }
%"class.pxrInternal_v0_24__pxrReserved__::GfMatrix3d" = type { %"class.pxrInternal_v0_24__pxrReserved__::GfMatrixData" }
%"class.pxrInternal_v0_24__pxrReserved__::GfMatrixData" = type { [9 x double] }

@.str.49 = private unnamed_addr constant [9 x i8] c"matrix3d\00", align 1

; Function Attrs: mustprogress nounwind uwtable
define linkonce_odr dso_local noundef ptr @_ZN32pxrInternal_v0_24__pxrReserved__12GfMatrixDataIdLi3ELi3EEixEi(ptr noundef nonnull align 8 dereferenceable(72) %0, i32 noundef %1) #5 comdat align 2 {
  %3 = alloca ptr, align 8
  %4 = alloca i32, align 4
  store ptr %0, ptr %3, align 8
  store i32 %1, ptr %4, align 4
  %5 = load ptr, ptr %3, align 8
  %6 = getelementptr inbounds nuw %"class.pxrInternal_v0_24__pxrReserved__::GfMatrixData", ptr %5, i32 0, i32 0
  %7 = getelementptr inbounds [9 x double], ptr %6, i64 0, i64 0
  %8 = load i32, ptr %4, align 4
  %9 = mul nsw i32 %8, 3
  %10 = sext i32 %9 to i64
  %11 = getelementptr inbounds double, ptr %7, i64 %10
  ret ptr %11
}

; Function Attrs: mustprogress uwtable
define linkonce_odr dso_local noundef nonnull align 8 dereferenceable(72) ptr @_ZN32pxrInternal_v0_24__pxrReserved__10GfMatrix3d3SetEddddddddd(ptr noundef nonnull align 8 dereferenceable(72) %0, double noundef %1, double noundef %2, double noundef %3, double noundef %4, double noundef %5, double noundef %6, double noundef %7, double noundef %8, double noundef %9) #4 comdat align 2 {
  %11 = alloca ptr, align 8
  %12 = alloca double, align 8
  %13 = alloca double, align 8
  %14 = alloca double, align 8
  %15 = alloca double, align 8
  %16 = alloca double, align 8
  %17 = alloca double, align 8
  %18 = alloca double, align 8
  %19 = alloca double, align 8
  %20 = alloca double, align 8
  store ptr %0, ptr %11, align 8
  store double %1, ptr %12, align 8
  store double %2, ptr %13, align 8
  store double %3, ptr %14, align 8
  store double %4, ptr %15, align 8
  store double %5, ptr %16, align 8
  store double %6, ptr %17, align 8
  store double %7, ptr %18, align 8
  store double %8, ptr %19, align 8
  store double %9, ptr %20, align 8
  %21 = load ptr, ptr %11, align 8
  %22 = load double, ptr %12, align 8
  %23 = getelementptr inbounds nuw %"class.pxrInternal_v0_24__pxrReserved__::GfMatrix3d", ptr %21, i32 0, i32 0
  %24 = call noundef ptr @_ZN32pxrInternal_v0_24__pxrReserved__12GfMatrixDataIdLi3ELi3EEixEi(ptr noundef nonnull align 8 dereferenceable(72) %23, i32 noundef 0)
  %25 = getelementptr inbounds double, ptr %24, i64 0
  store double %22, ptr %25, align 8
  %26 = load double, ptr %13, align 8
  %27 = getelementptr inbounds nuw %"class.pxrInternal_v0_24__pxrReserved__::GfMatrix3d", ptr %21, i32 0, i32 0
  %28 = call noundef ptr @_ZN32pxrInternal_v0_24__pxrReserved__12GfMatrixDataIdLi3ELi3EEixEi(ptr noundef nonnull align 8 dereferenceable(72) %27, i32 noundef 0)
  %29 = getelementptr inbounds double, ptr %28, i64 1
  store double %26, ptr %29, align 8
  %30 = load double, ptr %14, align 8
  %31 = getelementptr inbounds nuw %"class.pxrInternal_v0_24__pxrReserved__::GfMatrix3d", ptr %21, i32 0, i32 0
  %32 = call noundef ptr @_ZN32pxrInternal_v0_24__pxrReserved__12GfMatrixDataIdLi3ELi3EEixEi(ptr noundef nonnull align 8 dereferenceable(72) %31, i32 noundef 0)
  %33 = getelementptr inbounds double, ptr %32, i64 2
  store double %30, ptr %33, align 8
  %34 = load double, ptr %15, align 8
  %35 = getelementptr inbounds nuw %"class.pxrInternal_v0_24__pxrReserved__::GfMatrix3d", ptr %21, i32 0, i32 0
  %36 = call noundef ptr @_ZN32pxrInternal_v0_24__pxrReserved__12GfMatrixDataIdLi3ELi3EEixEi(ptr noundef nonnull align 8 dereferenceable(72) %35, i32 noundef 1)
  %37 = getelementptr inbounds double, ptr %36, i64 0
  store double %34, ptr %37, align 8
  %38 = load double, ptr %16, align 8
  %39 = getelementptr inbounds nuw %"class.pxrInternal_v0_24__pxrReserved__::GfMatrix3d", ptr %21, i32 0, i32 0
  %40 = call noundef ptr @_ZN32pxrInternal_v0_24__pxrReserved__12GfMatrixDataIdLi3ELi3EEixEi(ptr noundef nonnull align 8 dereferenceable(72) %39, i32 noundef 1)
  %41 = getelementptr inbounds double, ptr %40, i64 1
  store double %38, ptr %41, align 8
  %42 = load double, ptr %17, align 8
  %43 = getelementptr inbounds nuw %"class.pxrInternal_v0_24__pxrReserved__::GfMatrix3d", ptr %21, i32 0, i32 0
  %44 = call noundef ptr @_ZN32pxrInternal_v0_24__pxrReserved__12GfMatrixDataIdLi3ELi3EEixEi(ptr noundef nonnull align 8 dereferenceable(72) %43, i32 noundef 1)
  %45 = getelementptr inbounds double, ptr %44, i64 2
  store double %42, ptr %45, align 8
  %46 = load double, ptr %18, align 8
  %47 = getelementptr inbounds nuw %"class.pxrInternal_v0_24__pxrReserved__::GfMatrix3d", ptr %21, i32 0, i32 0
  %48 = call noundef ptr @_ZN32pxrInternal_v0_24__pxrReserved__12GfMatrixDataIdLi3ELi3EEixEi(ptr noundef nonnull align 8 dereferenceable(72) %47, i32 noundef 2)
  %49 = getelementptr inbounds double, ptr %48, i64 0
  store double %46, ptr %49, align 8
  %50 = load double, ptr %19, align 8
  %51 = getelementptr inbounds nuw %"class.pxrInternal_v0_24__pxrReserved__::GfMatrix3d", ptr %21, i32 0, i32 0
  %52 = call noundef ptr @_ZN32pxrInternal_v0_24__pxrReserved__12GfMatrixDataIdLi3ELi3EEixEi(ptr noundef nonnull align 8 dereferenceable(72) %51, i32 noundef 2)
  %53 = getelementptr inbounds double, ptr %52, i64 1
  store double %50, ptr %53, align 8
  %54 = load double, ptr %20, align 8
  %55 = getelementptr inbounds nuw %"class.pxrInternal_v0_24__pxrReserved__::GfMatrix3d", ptr %21, i32 0, i32 0
  %56 = call noundef ptr @_ZN32pxrInternal_v0_24__pxrReserved__12GfMatrixDataIdLi3ELi3EEixEi(ptr noundef nonnull align 8 dereferenceable(72) %55, i32 noundef 2)
  %57 = getelementptr inbounds double, ptr %56, i64 2
  store double %54, ptr %57, align 8
  ret ptr %21
}

; Function Attrs: mustprogress uwtable
define linkonce_odr dso_local void @_ZN32pxrInternal_v0_24__pxrReserved__10GfMatrix3dC2Eddddddddd(ptr noundef nonnull align 8 dereferenceable(72) %0, double noundef %1, double noundef %2, double noundef %3, double noundef %4, double noundef %5, double noundef %6, double noundef %7, double noundef %8, double noundef %9) unnamed_addr #4 comdat align 2 {
  %11 = alloca ptr, align 8
  %12 = alloca double, align 8
  %13 = alloca double, align 8
  %14 = alloca double, align 8
  %15 = alloca double, align 8
  %16 = alloca double, align 8
  %17 = alloca double, align 8
  %18 = alloca double, align 8
  %19 = alloca double, align 8
  %20 = alloca double, align 8
  store ptr %0, ptr %11, align 8
  store double %1, ptr %12, align 8
  store double %2, ptr %13, align 8
  store double %3, ptr %14, align 8
  store double %4, ptr %15, align 8
  store double %5, ptr %16, align 8
  store double %6, ptr %17, align 8
  store double %7, ptr %18, align 8
  store double %8, ptr %19, align 8
  store double %9, ptr %20, align 8
  %21 = load ptr, ptr %11, align 8
  %22 = load double, ptr %12, align 8
  %23 = load double, ptr %13, align 8
  %24 = load double, ptr %14, align 8
  %25 = load double, ptr %15, align 8
  %26 = load double, ptr %16, align 8
  %27 = load double, ptr %17, align 8
  %28 = load double, ptr %18, align 8
  %29 = load double, ptr %19, align 8
  %30 = load double, ptr %20, align 8
  %31 = call noundef nonnull align 8 dereferenceable(72) ptr @_ZN32pxrInternal_v0_24__pxrReserved__10GfMatrix3d3SetEddddddddd(ptr noundef nonnull align 8 dereferenceable(72) %21, double noundef %22, double noundef %23, double noundef %24, double noundef %25, double noundef %26, double noundef %27, double noundef %28, double noundef %29, double noundef %30)
  ret void
}

; Function Attrs: mustprogress uwtable
define dso_local void @_Z7GetInfoIN32pxrInternal_v0_24__pxrReserved__10GfMatrix3dEEvPNS0_7VtArrayIT_EEPNSt7__cxx1112basic_stringIcSt11char_traitsIcESaIcEEE(ptr noundef %0, ptr noundef %1) #4 personality ptr @__gxx_personality_v0 {
  %3 = alloca ptr, align 8
  %4 = alloca ptr, align 8
  %5 = alloca %"class.pxrInternal_v0_24__pxrReserved__::VtArray", align 8
  %6 = alloca ptr, align 8
  %7 = alloca i32, align 4
  %8 = alloca %"class.pxrInternal_v0_24__pxrReserved__::GfMatrix3d", align 8
  %9 = alloca %"class.pxrInternal_v0_24__pxrReserved__::GfMatrix3d", align 8
  %10 = alloca %"class.pxrInternal_v0_24__pxrReserved__::GfMatrix3d", align 8
  store ptr %0, ptr %3, align 8
  store ptr %1, ptr %4, align 8
  %11 = load ptr, ptr %4, align 8
  %12 = call noundef nonnull align 8 dereferenceable(32) ptr @_ZNSt7__cxx1112basic_stringIcSt11char_traitsIcESaIcEEaSEPKc(ptr noundef nonnull align 8 dereferenceable(32) %11, ptr noundef @.str.49)
  call void @_ZN32pxrInternal_v0_24__pxrReserved__7VtArrayINS_10GfMatrix3dEEC1Em(ptr noundef nonnull align 8 dereferenceable(40) %5, i64 noundef 3)
  %13 = load ptr, ptr %3, align 8
  %14 = invoke noundef nonnull align 8 dereferenceable(40) ptr @_ZN32pxrInternal_v0_24__pxrReserved__7VtArrayINS_10GfMatrix3dEEaSEOS2_(ptr noundef nonnull align 8 dereferenceable(40) %13, ptr noundef nonnull align 8 dereferenceable(40) %5)
          to label %15 unwind label %22

15:                                               ; preds = %2
  call void @_ZN32pxrInternal_v0_24__pxrReserved__7VtArrayINS_10GfMatrix3dEED1Ev(ptr noundef nonnull align 8 dereferenceable(40) %5) #3
  call void @_ZN32pxrInternal_v0_24__pxrReserved__10GfMatrix3dC2Eddddddddd(ptr noundef nonnull align 8 dereferenceable(72) %8, double noundef 5.000000e-01, double noundef 1.500000e+00, double noundef 2.500000e+00, double noundef 3.500000e+00, double noundef 4.500000e+00, double noundef 5.500000e+00, double noundef 6.500000e+00, double noundef 7.500000e+00, double noundef 8.500000e+00)
  %16 = load ptr, ptr %3, align 8
  %17 = call noundef nonnull align 8 dereferenceable(72) ptr @_ZN32pxrInternal_v0_24__pxrReserved__7VtArrayINS_10GfMatrix3dEEixEm(ptr noundef nonnull align 8 dereferenceable(40) %16, i64 noundef 0)
  call void @llvm.memcpy.p0.p0.i64(ptr align 8 %17, ptr align 8 %8, i64 72, i1 false)
  call void @_ZN32pxrInternal_v0_24__pxrReserved__10GfMatrix3dC2Eddddddddd(ptr noundef nonnull align 8 dereferenceable(72) %9, double noundef 9.500000e+00, double noundef 1.050000e+01, double noundef 1.150000e+01, double noundef 1.250000e+01, double noundef 1.350000e+01, double noundef 1.450000e+01, double noundef 1.550000e+01, double noundef 1.650000e+01, double noundef 1.750000e+01)
  %18 = load ptr, ptr %3, align 8
  %19 = call noundef nonnull align 8 dereferenceable(72) ptr @_ZN32pxrInternal_v0_24__pxrReserved__7VtArrayINS_10GfMatrix3dEEixEm(ptr noundef nonnull align 8 dereferenceable(40) %18, i64 noundef 1)
  call void @llvm.memcpy.p0.p0.i64(ptr align 8 %19, ptr align 8 %9, i64 72, i1 false)
  call void @_ZN32pxrInternal_v0_24__pxrReserved__10GfMatrix3dC2Eddddddddd(ptr noundef nonnull align 8 dereferenceable(72) %10, double noundef 1.850000e+01, double noundef 1.950000e+01, double noundef 2.050000e+01, double noundef 2.150000e+01, double noundef 2.250000e+01, double noundef 2.350000e+01, double noundef 2.450000e+01, double noundef 2.550000e+01, double noundef 2.650000e+01)
  %20 = load ptr, ptr %3, align 8
  %21 = call noundef nonnull align 8 dereferenceable(72) ptr @_ZN32pxrInternal_v0_24__pxrReserved__7VtArrayINS_10GfMatrix3dEEixEm(ptr noundef nonnull align 8 dereferenceable(40) %20, i64 noundef 2)
  call void @llvm.memcpy.p0.p0.i64(ptr align 8 %21, ptr align 8 %10, i64 72, i1 false)
  ret void

22:                                               ; preds = %2
  %23 = landingpad { ptr, i32 }
          cleanup
  %24 = extractvalue { ptr, i32 } %23, 0
  store ptr %24, ptr %6, align 8
  %25 = extractvalue { ptr, i32 } %23, 1
  store i32 %25, ptr %7, align 4
  call void @_ZN32pxrInternal_v0_24__pxrReserved__7VtArrayINS_10GfMatrix3dEED1Ev(ptr noundef nonnull align 8 dereferenceable(40) %5) #3
  br label %26

26:                                               ; preds = %22
  %27 = load ptr, ptr %6, align 8
  %28 = load i32, ptr %7, align 4
  %29 = insertvalue { ptr, i32 } poison, ptr %27, 0
  %30 = insertvalue { ptr, i32 } %29, i32 %28, 1
  resume { ptr, i32 } %30
}